; Function Attrs: mustprogress nounwind uwtable
define dso_local void @_ZN4llvm14MachineOperand10ChangeToBAEPKNS_12BlockAddressElj(ptr noundef nonnull align 8 dereferenceable(32) %0, ptr noundef %1, i64 noundef %2, i32 noundef %3) local_unnamed_addr #0 align 2 {
  %5 = load i32, ptr %0, align 8
  %6 = and i32 %5, 255
  %7 = icmp eq i32 %6, 0
  %8 = getelementptr inbounds nuw i8, ptr %0, i64 16
  %9 = load ptr, ptr %8, align 8
  %10 = icmp ne ptr %9, null
  %or.cond.i = select i1 %7, i1 %10, i1 false
  br i1 %or.cond.i, label %11, label %_ZN4llvm14MachineOperand17removeRegFromUsesEv.exit

11:                                               ; preds = %4
  %12 = getelementptr inbounds nuw i8, ptr %0, i64 8
  %.val.i = load ptr, ptr %12, align 8
  %.not.i.i.i = icmp eq ptr %.val.i, null
  br i1 %.not.i.i.i, label %_ZN4llvm14MachineOperand17removeRegFromUsesEv.exit, label %13

13:                                               ; preds = %11
  %14 = getelementptr inbounds nuw i8, ptr %.val.i, i64 24
  %15 = load ptr, ptr %14, align 8
  %.not11.i.i.i = icmp eq ptr %15, null
  br i1 %.not11.i.i.i, label %_ZN4llvm14MachineOperand17removeRegFromUsesEv.exit, label %16

16:                                               ; preds = %13
  %17 = getelementptr inbounds nuw i8, ptr %15, i64 32
  %18 = load ptr, ptr %17, align 8
  %.not12.i.i.i = icmp eq ptr %18, null
  br i1 %.not12.i.i.i, label %_ZN4llvm14MachineOperand17removeRegFromUsesEv.exit, label %_ZL16getMFIfAvailableRN4llvm14MachineOperandE.exit.i

_ZL16getMFIfAvailableRN4llvm14MachineOperandE.exit.i: ; preds = %16
  %19 = getelementptr inbounds nuw i8, ptr %18, i64 32
  %20 = load ptr, ptr %19, align 8
  tail call void @_ZN4llvm19MachineRegisterInfo27removeRegOperandFromUseListEPNS_14MachineOperandE(ptr noundef nonnull align 8 dereferenceable(512) %20, ptr noundef nonnull align 8 dereferenceable(32) %0) #21
  %.pre = load i32, ptr %0, align 8
  br label %_ZN4llvm14MachineOperand17removeRegFromUsesEv.exit

_ZN4llvm14MachineOperand17removeRegFromUsesEv.exit: ; preds = %4, %11, %13, %16, %_ZL16getMFIfAvailableRN4llvm14MachineOperandE.exit.i
  %21 = phi i32 [ %5, %4 ], [ %5, %11 ], [ %5, %13 ], [ %5, %16 ], [ %.pre, %_ZL16getMFIfAvailableRN4llvm14MachineOperandE.exit.i ]
  store ptr %1, ptr %8, align 8
  %22 = trunc i64 %2 to i32
  %23 = getelementptr inbounds nuw i8, ptr %0, i64 4
  store i32 %22, ptr %23, align 4
  %24 = lshr i64 %2, 32
  %25 = trunc nuw i64 %24 to i32
  %26 = getelementptr inbounds nuw i8, ptr %0, i64 24
  store i32 %25, ptr %26, align 8
  %27 = shl i32 %3, 8
  %28 = and i32 %27, 1048320
  %29 = and i32 %21, -1048576
  %30 = or disjoint i32 %29, %28
  %31 = or disjoint i32 %30, 11
  store i32 %31, ptr %0, align 8
  ret void
}